
./fil_chal:     file format elf32-i386


Disassembly of section .init:

08048684 <.init>:
 8048684:	53                   	push   %ebx
 8048685:	83 ec 08             	sub    $0x8,%esp
 8048688:	e8 00 00 00 00       	call   804868d <setsockopt@plt-0x43>
 804868d:	5b                   	pop    %ebx
 804868e:	81 c3 e7 28 00 00    	add    $0x28e7,%ebx
 8048694:	8b 83 88 00 00 00    	mov    0x88(%ebx),%eax
 804869a:	85 c0                	test   %eax,%eax
 804869c:	74 05                	je     80486a3 <setsockopt@plt-0x2d>
 804869e:	e8 ed 00 00 00       	call   8048790 <__gmon_start__@plt>
 80486a3:	e8 a8 02 00 00       	call   8048950 <send@plt+0xa0>
 80486a8:	e8 e3 0e 00 00       	call   8049590 <send@plt+0xce0>
 80486ad:	83 c4 08             	add    $0x8,%esp
 80486b0:	5b                   	pop    %ebx
 80486b1:	c3                   	ret    

Disassembly of section .plt:

080486c0 <setsockopt@plt-0x10>:
 80486c0:	ff 35 78 af 04 08    	pushl  0x804af78
 80486c6:	ff 25 7c af 04 08    	jmp    *0x804af7c
 80486cc:	00 00                	add    %al,(%eax)
	...

080486d0 <setsockopt@plt>:
 80486d0:	ff 25 80 af 04 08    	jmp    *0x804af80
 80486d6:	68 00 00 00 00       	push   $0x0
 80486db:	e9 e0 ff ff ff       	jmp    80486c0 <setsockopt@plt-0x10>

080486e0 <read@plt>:
 80486e0:	ff 25 84 af 04 08    	jmp    *0x804af84
 80486e6:	68 08 00 00 00       	push   $0x8
 80486eb:	e9 d0 ff ff ff       	jmp    80486c0 <setsockopt@plt-0x10>

080486f0 <fflush@plt>:
 80486f0:	ff 25 88 af 04 08    	jmp    *0x804af88
 80486f6:	68 10 00 00 00       	push   $0x10
 80486fb:	e9 c0 ff ff ff       	jmp    80486c0 <setsockopt@plt-0x10>

08048700 <fclose@plt>:
 8048700:	ff 25 8c af 04 08    	jmp    *0x804af8c
 8048706:	68 18 00 00 00       	push   $0x18
 804870b:	e9 b0 ff ff ff       	jmp    80486c0 <setsockopt@plt-0x10>

08048710 <signal@plt>:
 8048710:	ff 25 90 af 04 08    	jmp    *0x804af90
 8048716:	68 20 00 00 00       	push   $0x20
 804871b:	e9 a0 ff ff ff       	jmp    80486c0 <setsockopt@plt-0x10>

08048720 <getuid@plt>:
 8048720:	ff 25 94 af 04 08    	jmp    *0x804af94
 8048726:	68 28 00 00 00       	push   $0x28
 804872b:	e9 90 ff ff ff       	jmp    80486c0 <setsockopt@plt-0x10>

08048730 <wait@plt>:
 8048730:	ff 25 98 af 04 08    	jmp    *0x804af98
 8048736:	68 30 00 00 00       	push   $0x30
 804873b:	e9 80 ff ff ff       	jmp    80486c0 <setsockopt@plt-0x10>

08048740 <htons@plt>:
 8048740:	ff 25 9c af 04 08    	jmp    *0x804af9c
 8048746:	68 38 00 00 00       	push   $0x38
 804874b:	e9 70 ff ff ff       	jmp    80486c0 <setsockopt@plt-0x10>

08048750 <seteuid@plt>:
 8048750:	ff 25 a0 af 04 08    	jmp    *0x804afa0
 8048756:	68 40 00 00 00       	push   $0x40
 804875b:	e9 60 ff ff ff       	jmp    80486c0 <setsockopt@plt-0x10>

08048760 <perror@plt>:
 8048760:	ff 25 a4 af 04 08    	jmp    *0x804afa4
 8048766:	68 48 00 00 00       	push   $0x48
 804876b:	e9 50 ff ff ff       	jmp    80486c0 <setsockopt@plt-0x10>

08048770 <accept@plt>:
 8048770:	ff 25 a8 af 04 08    	jmp    *0x804afa8
 8048776:	68 50 00 00 00       	push   $0x50
 804877b:	e9 40 ff ff ff       	jmp    80486c0 <setsockopt@plt-0x10>

08048780 <fwrite@plt>:
 8048780:	ff 25 ac af 04 08    	jmp    *0x804afac
 8048786:	68 58 00 00 00       	push   $0x58
 804878b:	e9 30 ff ff ff       	jmp    80486c0 <setsockopt@plt-0x10>

08048790 <__gmon_start__@plt>:
 8048790:	ff 25 b0 af 04 08    	jmp    *0x804afb0
 8048796:	68 60 00 00 00       	push   $0x60
 804879b:	e9 20 ff ff ff       	jmp    80486c0 <setsockopt@plt-0x10>

080487a0 <exit@plt>:
 80487a0:	ff 25 b4 af 04 08    	jmp    *0x804afb4
 80487a6:	68 68 00 00 00       	push   $0x68
 80487ab:	e9 10 ff ff ff       	jmp    80486c0 <setsockopt@plt-0x10>

080487b0 <__libc_start_main@plt>:
 80487b0:	ff 25 b8 af 04 08    	jmp    *0x804afb8
 80487b6:	68 70 00 00 00       	push   $0x70
 80487bb:	e9 00 ff ff ff       	jmp    80486c0 <setsockopt@plt-0x10>

080487c0 <fprintf@plt>:
 80487c0:	ff 25 bc af 04 08    	jmp    *0x804afbc
 80487c6:	68 78 00 00 00       	push   $0x78
 80487cb:	e9 f0 fe ff ff       	jmp    80486c0 <setsockopt@plt-0x10>

080487d0 <bind@plt>:
 80487d0:	ff 25 c0 af 04 08    	jmp    *0x804afc0
 80487d6:	68 80 00 00 00       	push   $0x80
 80487db:	e9 e0 fe ff ff       	jmp    80486c0 <setsockopt@plt-0x10>

080487e0 <fopen@plt>:
 80487e0:	ff 25 c4 af 04 08    	jmp    *0x804afc4
 80487e6:	68 88 00 00 00       	push   $0x88
 80487eb:	e9 d0 fe ff ff       	jmp    80486c0 <setsockopt@plt-0x10>

080487f0 <memset@plt>:
 80487f0:	ff 25 c8 af 04 08    	jmp    *0x804afc8
 80487f6:	68 90 00 00 00       	push   $0x90
 80487fb:	e9 c0 fe ff ff       	jmp    80486c0 <setsockopt@plt-0x10>

08048800 <snprintf@plt>:
 8048800:	ff 25 cc af 04 08    	jmp    *0x804afcc
 8048806:	68 98 00 00 00       	push   $0x98
 804880b:	e9 b0 fe ff ff       	jmp    80486c0 <setsockopt@plt-0x10>

08048810 <fork@plt>:
 8048810:	ff 25 d0 af 04 08    	jmp    *0x804afd0
 8048816:	68 a0 00 00 00       	push   $0xa0
 804881b:	e9 a0 fe ff ff       	jmp    80486c0 <setsockopt@plt-0x10>

08048820 <sigemptyset@plt>:
 8048820:	ff 25 d4 af 04 08    	jmp    *0x804afd4
 8048826:	68 a8 00 00 00       	push   $0xa8
 804882b:	e9 90 fe ff ff       	jmp    80486c0 <setsockopt@plt-0x10>

08048830 <listen@plt>:
 8048830:	ff 25 d8 af 04 08    	jmp    *0x804afd8
 8048836:	68 b0 00 00 00       	push   $0xb0
 804883b:	e9 80 fe ff ff       	jmp    80486c0 <setsockopt@plt-0x10>

08048840 <setuid@plt>:
 8048840:	ff 25 dc af 04 08    	jmp    *0x804afdc
 8048846:	68 b8 00 00 00       	push   $0xb8
 804884b:	e9 70 fe ff ff       	jmp    80486c0 <setsockopt@plt-0x10>

08048850 <remove@plt>:
 8048850:	ff 25 e0 af 04 08    	jmp    *0x804afe0
 8048856:	68 c0 00 00 00       	push   $0xc0
 804885b:	e9 60 fe ff ff       	jmp    80486c0 <setsockopt@plt-0x10>

08048860 <atoi@plt>:
 8048860:	ff 25 e4 af 04 08    	jmp    *0x804afe4
 8048866:	68 c8 00 00 00       	push   $0xc8
 804886b:	e9 50 fe ff ff       	jmp    80486c0 <setsockopt@plt-0x10>

08048870 <socket@plt>:
 8048870:	ff 25 e8 af 04 08    	jmp    *0x804afe8
 8048876:	68 d0 00 00 00       	push   $0xd0
 804887b:	e9 40 fe ff ff       	jmp    80486c0 <setsockopt@plt-0x10>

08048880 <sigaction@plt>:
 8048880:	ff 25 ec af 04 08    	jmp    *0x804afec
 8048886:	68 d8 00 00 00       	push   $0xd8
 804888b:	e9 30 fe ff ff       	jmp    80486c0 <setsockopt@plt-0x10>

08048890 <recv@plt>:
 8048890:	ff 25 f0 af 04 08    	jmp    *0x804aff0
 8048896:	68 e0 00 00 00       	push   $0xe0
 804889b:	e9 20 fe ff ff       	jmp    80486c0 <setsockopt@plt-0x10>

080488a0 <close@plt>:
 80488a0:	ff 25 f4 af 04 08    	jmp    *0x804aff4
 80488a6:	68 e8 00 00 00       	push   $0xe8
 80488ab:	e9 10 fe ff ff       	jmp    80486c0 <setsockopt@plt-0x10>

080488b0 <send@plt>:
 80488b0:	ff 25 f8 af 04 08    	jmp    *0x804aff8
 80488b6:	68 f0 00 00 00       	push   $0xf0
 80488bb:	e9 00 fe ff ff       	jmp    80486c0 <setsockopt@plt-0x10>

Disassembly of section .text:

080488c0 <.text>:
 80488c0:	31 ed                	xor    %ebp,%ebp
 80488c2:	5e                   	pop    %esi
 80488c3:	89 e1                	mov    %esp,%ecx
 80488c5:	83 e4 f0             	and    $0xfffffff0,%esp
 80488c8:	50                   	push   %eax
 80488c9:	54                   	push   %esp
 80488ca:	52                   	push   %edx
 80488cb:	68 80 95 04 08       	push   $0x8049580
 80488d0:	68 10 95 04 08       	push   $0x8049510
 80488d5:	51                   	push   %ecx
 80488d6:	56                   	push   %esi
 80488d7:	68 74 89 04 08       	push   $0x8048974
 80488dc:	e8 cf fe ff ff       	call   80487b0 <__libc_start_main@plt>
 80488e1:	f4                   	hlt    
 80488e2:	90                   	nop
 80488e3:	90                   	nop
 80488e4:	90                   	nop
 80488e5:	90                   	nop
 80488e6:	90                   	nop
 80488e7:	90                   	nop
 80488e8:	90                   	nop
 80488e9:	90                   	nop
 80488ea:	90                   	nop
 80488eb:	90                   	nop
 80488ec:	90                   	nop
 80488ed:	90                   	nop
 80488ee:	90                   	nop
 80488ef:	90                   	nop
 80488f0:	55                   	push   %ebp
 80488f1:	89 e5                	mov    %esp,%ebp
 80488f3:	53                   	push   %ebx
 80488f4:	83 ec 04             	sub    $0x4,%esp
 80488f7:	80 3d 0c b0 04 08 00 	cmpb   $0x0,0x804b00c
 80488fe:	75 3f                	jne    804893f <send@plt+0x8f>
 8048900:	a1 10 b0 04 08       	mov    0x804b010,%eax
 8048905:	bb 94 ae 04 08       	mov    $0x804ae94,%ebx
 804890a:	81 eb 90 ae 04 08    	sub    $0x804ae90,%ebx
 8048910:	c1 fb 02             	sar    $0x2,%ebx
 8048913:	83 eb 01             	sub    $0x1,%ebx
 8048916:	39 d8                	cmp    %ebx,%eax
 8048918:	73 1e                	jae    8048938 <send@plt+0x88>
 804891a:	8d b6 00 00 00 00    	lea    0x0(%esi),%esi
 8048920:	83 c0 01             	add    $0x1,%eax
 8048923:	a3 10 b0 04 08       	mov    %eax,0x804b010
 8048928:	ff 14 85 90 ae 04 08 	call   *0x804ae90(,%eax,4)
 804892f:	a1 10 b0 04 08       	mov    0x804b010,%eax
 8048934:	39 d8                	cmp    %ebx,%eax
 8048936:	72 e8                	jb     8048920 <send@plt+0x70>
 8048938:	c6 05 0c b0 04 08 01 	movb   $0x1,0x804b00c
 804893f:	83 c4 04             	add    $0x4,%esp
 8048942:	5b                   	pop    %ebx
 8048943:	5d                   	pop    %ebp
 8048944:	c3                   	ret    
 8048945:	8d 74 26 00          	lea    0x0(%esi,%eiz,1),%esi
 8048949:	8d bc 27 00 00 00 00 	lea    0x0(%edi,%eiz,1),%edi
 8048950:	55                   	push   %ebp
 8048951:	89 e5                	mov    %esp,%ebp
 8048953:	83 ec 18             	sub    $0x18,%esp
 8048956:	a1 98 ae 04 08       	mov    0x804ae98,%eax
 804895b:	85 c0                	test   %eax,%eax
 804895d:	74 12                	je     8048971 <send@plt+0xc1>
 804895f:	b8 00 00 00 00       	mov    $0x0,%eax
 8048964:	85 c0                	test   %eax,%eax
 8048966:	74 09                	je     8048971 <send@plt+0xc1>
 8048968:	c7 04 24 98 ae 04 08 	movl   $0x804ae98,(%esp)
 804896f:	ff d0                	call   *%eax
 8048971:	c9                   	leave  
 8048972:	c3                   	ret    
 8048973:	90                   	nop
 8048974:	55                   	push   %ebp
 8048975:	89 e5                	mov    %esp,%ebp
 8048977:	83 e4 f0             	and    $0xfffffff0,%esp
 804897a:	e8 29 00 00 00       	call   80489a8 <send@plt+0xf8>
 804897f:	c9                   	leave  
 8048980:	c3                   	ret    
 8048981:	55                   	push   %ebp
 8048982:	89 e5                	mov    %esp,%ebp
 8048984:	83 ec 28             	sub    $0x28,%esp
 8048987:	c7 44 24 04 81 89 04 	movl   $0x8048981,0x4(%esp)
 804898e:	08 
 804898f:	c7 04 24 11 00 00 00 	movl   $0x11,(%esp)
 8048996:	e8 75 fd ff ff       	call   8048710 <signal@plt>
 804899b:	8d 45 f4             	lea    -0xc(%ebp),%eax
 804899e:	89 04 24             	mov    %eax,(%esp)
 80489a1:	e8 8a fd ff ff       	call   8048730 <wait@plt>
 80489a6:	c9                   	leave  
 80489a7:	c3                   	ret    
 80489a8:	55                   	push   %ebp
 80489a9:	89 e5                	mov    %esp,%ebp
 80489ab:	81 ec e8 00 00 00    	sub    $0xe8,%esp
 80489b1:	c7 45 c4 01 00 00 00 	movl   $0x1,-0x3c(%ebp)
 80489b8:	c7 44 24 08 00 00 00 	movl   $0x0,0x8(%esp)
 80489bf:	00 
 80489c0:	c7 44 24 04 01 00 00 	movl   $0x1,0x4(%esp)
 80489c7:	00 
 80489c8:	c7 04 24 02 00 00 00 	movl   $0x2,(%esp)
 80489cf:	e8 9c fe ff ff       	call   8048870 <socket@plt>
 80489d4:	89 45 f4             	mov    %eax,-0xc(%ebp)
 80489d7:	83 7d f4 ff          	cmpl   $0xffffffff,-0xc(%ebp)
 80489db:	75 16                	jne    80489f3 <send@plt+0x143>
 80489dd:	c7 04 24 e0 95 04 08 	movl   $0x80495e0,(%esp)
 80489e4:	e8 77 fd ff ff       	call   8048760 <perror@plt>
 80489e9:	b8 ff ff ff ff       	mov    $0xffffffff,%eax
 80489ee:	e9 27 02 00 00       	jmp    8048c1a <send@plt+0x36a>
 80489f3:	8b 45 f4             	mov    -0xc(%ebp),%eax
 80489f6:	c7 44 24 10 04 00 00 	movl   $0x4,0x10(%esp)
 80489fd:	00 
 80489fe:	8d 55 c4             	lea    -0x3c(%ebp),%edx
 8048a01:	89 54 24 0c          	mov    %edx,0xc(%esp)
 8048a05:	c7 44 24 08 02 00 00 	movl   $0x2,0x8(%esp)
 8048a0c:	00 
 8048a0d:	c7 44 24 04 01 00 00 	movl   $0x1,0x4(%esp)
 8048a14:	00 
 8048a15:	89 04 24             	mov    %eax,(%esp)
 8048a18:	e8 b3 fc ff ff       	call   80486d0 <setsockopt@plt>
 8048a1d:	83 f8 ff             	cmp    $0xffffffff,%eax
 8048a20:	75 16                	jne    8048a38 <send@plt+0x188>
 8048a22:	c7 04 24 e7 95 04 08 	movl   $0x80495e7,(%esp)
 8048a29:	e8 32 fd ff ff       	call   8048760 <perror@plt>
 8048a2e:	b8 ff ff ff ff       	mov    $0xffffffff,%eax
 8048a33:	e9 e2 01 00 00       	jmp    8048c1a <send@plt+0x36a>
 8048a38:	66 c7 45 dc 02 00    	movw   $0x2,-0x24(%ebp)
 8048a3e:	c7 04 24 da 85 00 00 	movl   $0x85da,(%esp)
 8048a45:	e8 f6 fc ff ff       	call   8048740 <htons@plt>
 8048a4a:	66 89 45 de          	mov    %ax,-0x22(%ebp)
 8048a4e:	c7 45 e0 00 00 00 00 	movl   $0x0,-0x20(%ebp)
 8048a55:	8d 45 dc             	lea    -0x24(%ebp),%eax
 8048a58:	83 c0 08             	add    $0x8,%eax
 8048a5b:	c7 00 00 00 00 00    	movl   $0x0,(%eax)
 8048a61:	c7 40 04 00 00 00 00 	movl   $0x0,0x4(%eax)
 8048a68:	8b 45 f4             	mov    -0xc(%ebp),%eax
 8048a6b:	c7 44 24 08 10 00 00 	movl   $0x10,0x8(%esp)
 8048a72:	00 
 8048a73:	8d 55 dc             	lea    -0x24(%ebp),%edx
 8048a76:	89 54 24 04          	mov    %edx,0x4(%esp)
 8048a7a:	89 04 24             	mov    %eax,(%esp)
 8048a7d:	e8 4e fd ff ff       	call   80487d0 <bind@plt>
 8048a82:	83 f8 ff             	cmp    $0xffffffff,%eax
 8048a85:	75 16                	jne    8048a9d <send@plt+0x1ed>
 8048a87:	c7 04 24 f2 95 04 08 	movl   $0x80495f2,(%esp)
 8048a8e:	e8 cd fc ff ff       	call   8048760 <perror@plt>
 8048a93:	b8 ff ff ff ff       	mov    $0xffffffff,%eax
 8048a98:	e9 7d 01 00 00       	jmp    8048c1a <send@plt+0x36a>
 8048a9d:	8b 45 f4             	mov    -0xc(%ebp),%eax
 8048aa0:	c7 44 24 04 64 00 00 	movl   $0x64,0x4(%esp)
 8048aa7:	00 
 8048aa8:	89 04 24             	mov    %eax,(%esp)
 8048aab:	e8 80 fd ff ff       	call   8048830 <listen@plt>
 8048ab0:	83 f8 ff             	cmp    $0xffffffff,%eax
 8048ab3:	75 16                	jne    8048acb <send@plt+0x21b>
 8048ab5:	c7 04 24 f7 95 04 08 	movl   $0x80495f7,(%esp)
 8048abc:	e8 9f fc ff ff       	call   8048760 <perror@plt>
 8048ac1:	b8 ff ff ff ff       	mov    $0xffffffff,%eax
 8048ac6:	e9 4f 01 00 00       	jmp    8048c1a <send@plt+0x36a>
 8048acb:	c7 45 c8 10 00 00 00 	movl   $0x10,-0x38(%ebp)
 8048ad2:	c7 85 38 ff ff ff 81 	movl   $0x8048981,-0xc8(%ebp)
 8048ad9:	89 04 08 
 8048adc:	8d 85 38 ff ff ff    	lea    -0xc8(%ebp),%eax
 8048ae2:	83 c0 04             	add    $0x4,%eax
 8048ae5:	89 04 24             	mov    %eax,(%esp)
 8048ae8:	e8 33 fd ff ff       	call   8048820 <sigemptyset@plt>
 8048aed:	c7 45 bc 00 00 00 10 	movl   $0x10000000,-0x44(%ebp)
 8048af4:	8d 85 38 ff ff ff    	lea    -0xc8(%ebp),%eax
 8048afa:	c7 44 24 08 00 00 00 	movl   $0x0,0x8(%esp)
 8048b01:	00 
 8048b02:	89 44 24 04          	mov    %eax,0x4(%esp)
 8048b06:	c7 04 24 11 00 00 00 	movl   $0x11,(%esp)
 8048b0d:	e8 6e fd ff ff       	call   8048880 <sigaction@plt>
 8048b12:	83 f8 ff             	cmp    $0xffffffff,%eax
 8048b15:	75 16                	jne    8048b2d <send@plt+0x27d>
 8048b17:	c7 04 24 fe 95 04 08 	movl   $0x80495fe,(%esp)
 8048b1e:	e8 3d fc ff ff       	call   8048760 <perror@plt>
 8048b23:	b8 ff ff ff ff       	mov    $0xffffffff,%eax
 8048b28:	e9 ed 00 00 00       	jmp    8048c1a <send@plt+0x36a>
 8048b2d:	e8 ea 00 00 00       	call   8048c1c <send@plt+0x36c>
 8048b32:	83 f0 01             	xor    $0x1,%eax
 8048b35:	84 c0                	test   %al,%al
 8048b37:	74 30                	je     8048b69 <send@plt+0x2b9>
 8048b39:	a1 08 b0 04 08       	mov    0x804b008,%eax
 8048b3e:	89 44 24 0c          	mov    %eax,0xc(%esp)
 8048b42:	c7 44 24 08 1c 00 00 	movl   $0x1c,0x8(%esp)
 8048b49:	00 
 8048b4a:	c7 44 24 04 01 00 00 	movl   $0x1,0x4(%esp)
 8048b51:	00 
 8048b52:	c7 04 24 08 96 04 08 	movl   $0x8049608,(%esp)
 8048b59:	e8 22 fc ff ff       	call   8048780 <fwrite@plt>
 8048b5e:	b8 ff ff ff ff       	mov    $0xffffffff,%eax
 8048b63:	e9 b2 00 00 00       	jmp    8048c1a <send@plt+0x36a>
 8048b68:	90                   	nop
 8048b69:	8b 45 f4             	mov    -0xc(%ebp),%eax
 8048b6c:	8d 55 c8             	lea    -0x38(%ebp),%edx
 8048b6f:	89 54 24 08          	mov    %edx,0x8(%esp)
 8048b73:	8d 55 cc             	lea    -0x34(%ebp),%edx
 8048b76:	89 54 24 04          	mov    %edx,0x4(%esp)
 8048b7a:	89 04 24             	mov    %eax,(%esp)
 8048b7d:	e8 ee fb ff ff       	call   8048770 <accept@plt>
 8048b82:	89 45 f0             	mov    %eax,-0x10(%ebp)
 8048b85:	83 7d f0 ff          	cmpl   $0xffffffff,-0x10(%ebp)
 8048b89:	75 13                	jne    8048b9e <send@plt+0x2ee>
 8048b8b:	c7 04 24 25 96 04 08 	movl   $0x8049625,(%esp)
 8048b92:	e8 c9 fb ff ff       	call   8048760 <perror@plt>
 8048b97:	b8 ff ff ff ff       	mov    $0xffffffff,%eax
 8048b9c:	eb 7c                	jmp    8048c1a <send@plt+0x36a>
 8048b9e:	a1 18 b0 04 08       	mov    0x804b018,%eax
 8048ba3:	8b 15 1c b0 04 08    	mov    0x804b01c,%edx
 8048ba9:	83 c0 01             	add    $0x1,%eax
 8048bac:	83 d2 00             	adc    $0x0,%edx
 8048baf:	a3 18 b0 04 08       	mov    %eax,0x804b018
 8048bb4:	89 15 1c b0 04 08    	mov    %edx,0x804b01c
 8048bba:	e8 51 fc ff ff       	call   8048810 <fork@plt>
 8048bbf:	89 45 ec             	mov    %eax,-0x14(%ebp)
 8048bc2:	83 7d ec 00          	cmpl   $0x0,-0x14(%ebp)
 8048bc6:	75 2d                	jne    8048bf5 <send@plt+0x345>
 8048bc8:	8b 45 f4             	mov    -0xc(%ebp),%eax
 8048bcb:	89 04 24             	mov    %eax,(%esp)
 8048bce:	e8 cd fc ff ff       	call   80488a0 <close@plt>
 8048bd3:	8b 45 f0             	mov    -0x10(%ebp),%eax
 8048bd6:	89 04 24             	mov    %eax,(%esp)
 8048bd9:	e8 f3 00 00 00       	call   8048cd1 <send@plt+0x421>
 8048bde:	8b 45 f0             	mov    -0x10(%ebp),%eax
 8048be1:	89 04 24             	mov    %eax,(%esp)
 8048be4:	e8 b7 fc ff ff       	call   80488a0 <close@plt>
 8048be9:	c7 04 24 00 00 00 00 	movl   $0x0,(%esp)
 8048bf0:	e8 ab fb ff ff       	call   80487a0 <exit@plt>
 8048bf5:	8b 45 f0             	mov    -0x10(%ebp),%eax
 8048bf8:	89 04 24             	mov    %eax,(%esp)
 8048bfb:	e8 a0 fc ff ff       	call   80488a0 <close@plt>
 8048c00:	83 f8 ff             	cmp    $0xffffffff,%eax
 8048c03:	0f 85 5f ff ff ff    	jne    8048b68 <send@plt+0x2b8>
 8048c09:	c7 04 24 2c 96 04 08 	movl   $0x804962c,(%esp)
 8048c10:	e8 4b fb ff ff       	call   8048760 <perror@plt>
 8048c15:	b8 ff ff ff ff       	mov    $0xffffffff,%eax
 8048c1a:	c9                   	leave  
 8048c1b:	c3                   	ret    
 8048c1c:	55                   	push   %ebp
 8048c1d:	89 e5                	mov    %esp,%ebp
 8048c1f:	83 ec 18             	sub    $0x18,%esp
 8048c22:	e8 f9 fa ff ff       	call   8048720 <getuid@plt>
 8048c27:	89 04 24             	mov    %eax,(%esp)
 8048c2a:	e8 21 fb ff ff       	call   8048750 <seteuid@plt>
 8048c2f:	85 c0                	test   %eax,%eax
 8048c31:	74 16                	je     8048c49 <send@plt+0x399>
 8048c33:	c7 04 24 32 96 04 08 	movl   $0x8049632,(%esp)
 8048c3a:	e8 21 fb ff ff       	call   8048760 <perror@plt>
 8048c3f:	b8 00 00 00 00       	mov    $0x0,%eax
 8048c44:	e9 86 00 00 00       	jmp    8048ccf <send@plt+0x41f>
 8048c49:	e8 d2 fa ff ff       	call   8048720 <getuid@plt>
 8048c4e:	89 04 24             	mov    %eax,(%esp)
 8048c51:	e8 ea fb ff ff       	call   8048840 <setuid@plt>
 8048c56:	85 c0                	test   %eax,%eax
 8048c58:	74 13                	je     8048c6d <send@plt+0x3bd>
 8048c5a:	c7 04 24 3a 96 04 08 	movl   $0x804963a,(%esp)
 8048c61:	e8 fa fa ff ff       	call   8048760 <perror@plt>
 8048c66:	b8 00 00 00 00       	mov    $0x0,%eax
 8048c6b:	eb 62                	jmp    8048ccf <send@plt+0x41f>
 8048c6d:	c7 04 24 00 00 00 00 	movl   $0x0,(%esp)
 8048c74:	e8 c7 fb ff ff       	call   8048840 <setuid@plt>
 8048c79:	83 f8 ff             	cmp    $0xffffffff,%eax
 8048c7c:	74 4c                	je     8048cca <send@plt+0x41a>
 8048c7e:	e8 9d fa ff ff       	call   8048720 <getuid@plt>
 8048c83:	b9 44 96 04 08       	mov    $0x8049644,%ecx
 8048c88:	8b 15 08 b0 04 08    	mov    0x804b008,%edx
 8048c8e:	89 44 24 08          	mov    %eax,0x8(%esp)
 8048c92:	89 4c 24 04          	mov    %ecx,0x4(%esp)
 8048c96:	89 14 24             	mov    %edx,(%esp)
 8048c99:	e8 22 fb ff ff       	call   80487c0 <fprintf@plt>
 8048c9e:	a1 08 b0 04 08       	mov    0x804b008,%eax
 8048ca3:	89 44 24 0c          	mov    %eax,0xc(%esp)
 8048ca7:	c7 44 24 08 0a 00 00 	movl   $0xa,0x8(%esp)
 8048cae:	00 
 8048caf:	c7 44 24 04 01 00 00 	movl   $0x1,0x4(%esp)
 8048cb6:	00 
 8048cb7:	c7 04 24 63 96 04 08 	movl   $0x8049663,(%esp)
 8048cbe:	e8 bd fa ff ff       	call   8048780 <fwrite@plt>
 8048cc3:	b8 00 00 00 00       	mov    $0x0,%eax
 8048cc8:	eb 05                	jmp    8048ccf <send@plt+0x41f>
 8048cca:	b8 01 00 00 00       	mov    $0x1,%eax
 8048ccf:	c9                   	leave  
 8048cd0:	c3                   	ret    
 8048cd1:	55                   	push   %ebp
 8048cd2:	89 e5                	mov    %esp,%ebp
 8048cd4:	57                   	push   %edi
 8048cd5:	83 ec 34             	sub    $0x34,%esp
 8048cd8:	c7 45 f4 6e 96 04 08 	movl   $0x804966e,-0xc(%ebp)
 8048cdf:	c7 45 f0 7b 96 04 08 	movl   $0x804967b,-0x10(%ebp)
 8048ce6:	8b 45 08             	mov    0x8(%ebp),%eax
 8048ce9:	c7 44 24 0c 00 00 00 	movl   $0x0,0xc(%esp)
 8048cf0:	00 
 8048cf1:	c7 44 24 08 a2 02 00 	movl   $0x2a2,0x8(%esp)
 8048cf8:	00 
 8048cf9:	c7 44 24 04 8c 96 04 	movl   $0x804968c,0x4(%esp)
 8048d00:	08 
 8048d01:	89 04 24             	mov    %eax,(%esp)
 8048d04:	e8 a7 fb ff ff       	call   80488b0 <send@plt>
 8048d09:	83 f8 ff             	cmp    $0xffffffff,%eax
 8048d0c:	75 11                	jne    8048d1f <send@plt+0x46f>
 8048d0e:	c7 04 24 2f 99 04 08 	movl   $0x804992f,(%esp)
 8048d15:	e8 46 fa ff ff       	call   8048760 <perror@plt>
 8048d1a:	e9 2d 01 00 00       	jmp    8048e4c <send@plt+0x59c>
 8048d1f:	8b 45 08             	mov    0x8(%ebp),%eax
 8048d22:	c7 44 24 0c 00 00 00 	movl   $0x0,0xc(%esp)
 8048d29:	00 
 8048d2a:	c7 44 24 08 09 00 00 	movl   $0x9,0x8(%esp)
 8048d31:	00 
 8048d32:	c7 44 24 04 36 99 04 	movl   $0x8049936,0x4(%esp)
 8048d39:	08 
 8048d3a:	89 04 24             	mov    %eax,(%esp)
 8048d3d:	e8 6e fb ff ff       	call   80488b0 <send@plt>
 8048d42:	83 f8 ff             	cmp    $0xffffffff,%eax
 8048d45:	75 11                	jne    8048d58 <send@plt+0x4a8>
 8048d47:	c7 04 24 2f 99 04 08 	movl   $0x804992f,(%esp)
 8048d4e:	e8 0d fa ff ff       	call   8048760 <perror@plt>
 8048d53:	e9 f4 00 00 00       	jmp    8048e4c <send@plt+0x59c>
 8048d58:	8b 45 08             	mov    0x8(%ebp),%eax
 8048d5b:	89 04 24             	mov    %eax,(%esp)
 8048d5e:	e8 f3 03 00 00       	call   8049156 <send@plt+0x8a6>
 8048d63:	83 f0 01             	xor    $0x1,%eax
 8048d66:	84 c0                	test   %al,%al
 8048d68:	0f 85 d7 00 00 00    	jne    8048e45 <send@plt+0x595>
 8048d6e:	8b 45 f4             	mov    -0xc(%ebp),%eax
 8048d71:	c7 45 e4 ff ff ff ff 	movl   $0xffffffff,-0x1c(%ebp)
 8048d78:	89 c2                	mov    %eax,%edx
 8048d7a:	b8 00 00 00 00       	mov    $0x0,%eax
 8048d7f:	8b 4d e4             	mov    -0x1c(%ebp),%ecx
 8048d82:	89 d7                	mov    %edx,%edi
 8048d84:	f2 ae                	repnz scas %es:(%edi),%al
 8048d86:	89 c8                	mov    %ecx,%eax
 8048d88:	f7 d0                	not    %eax
 8048d8a:	8d 50 ff             	lea    -0x1(%eax),%edx
 8048d8d:	8b 45 08             	mov    0x8(%ebp),%eax
 8048d90:	c7 44 24 0c 00 00 00 	movl   $0x0,0xc(%esp)
 8048d97:	00 
 8048d98:	89 54 24 08          	mov    %edx,0x8(%esp)
 8048d9c:	8b 55 f4             	mov    -0xc(%ebp),%edx
 8048d9f:	89 54 24 04          	mov    %edx,0x4(%esp)
 8048da3:	89 04 24             	mov    %eax,(%esp)
 8048da6:	e8 05 fb ff ff       	call   80488b0 <send@plt>
 8048dab:	83 f8 ff             	cmp    $0xffffffff,%eax
 8048dae:	75 11                	jne    8048dc1 <send@plt+0x511>
 8048db0:	c7 04 24 2f 99 04 08 	movl   $0x804992f,(%esp)
 8048db7:	e8 a4 f9 ff ff       	call   8048760 <perror@plt>
 8048dbc:	e9 8b 00 00 00       	jmp    8048e4c <send@plt+0x59c>
 8048dc1:	8d 45 ee             	lea    -0x12(%ebp),%eax
 8048dc4:	89 44 24 04          	mov    %eax,0x4(%esp)
 8048dc8:	8b 45 08             	mov    0x8(%ebp),%eax
 8048dcb:	89 04 24             	mov    %eax,(%esp)
 8048dce:	e8 7f 00 00 00       	call   8048e52 <send@plt+0x5a2>
 8048dd3:	83 f0 01             	xor    $0x1,%eax
 8048dd6:	84 c0                	test   %al,%al
 8048dd8:	75 6e                	jne    8048e48 <send@plt+0x598>
 8048dda:	0f b7 45 ee          	movzwl -0x12(%ebp),%eax
 8048dde:	98                   	cwtl   
 8048ddf:	89 44 24 04          	mov    %eax,0x4(%esp)
 8048de3:	8b 45 08             	mov    0x8(%ebp),%eax
 8048de6:	89 04 24             	mov    %eax,(%esp)
 8048de9:	e8 10 01 00 00       	call   8048efe <send@plt+0x64e>
 8048dee:	83 f0 01             	xor    $0x1,%eax
 8048df1:	84 c0                	test   %al,%al
 8048df3:	75 56                	jne    8048e4b <send@plt+0x59b>
 8048df5:	8b 45 f0             	mov    -0x10(%ebp),%eax
 8048df8:	c7 45 e4 ff ff ff ff 	movl   $0xffffffff,-0x1c(%ebp)
 8048dff:	89 c2                	mov    %eax,%edx
 8048e01:	b8 00 00 00 00       	mov    $0x0,%eax
 8048e06:	8b 4d e4             	mov    -0x1c(%ebp),%ecx
 8048e09:	89 d7                	mov    %edx,%edi
 8048e0b:	f2 ae                	repnz scas %es:(%edi),%al
 8048e0d:	89 c8                	mov    %ecx,%eax
 8048e0f:	f7 d0                	not    %eax
 8048e11:	8d 50 ff             	lea    -0x1(%eax),%edx
 8048e14:	8b 45 08             	mov    0x8(%ebp),%eax
 8048e17:	c7 44 24 0c 00 00 00 	movl   $0x0,0xc(%esp)
 8048e1e:	00 
 8048e1f:	89 54 24 08          	mov    %edx,0x8(%esp)
 8048e23:	8b 55 f0             	mov    -0x10(%ebp),%edx
 8048e26:	89 54 24 04          	mov    %edx,0x4(%esp)
 8048e2a:	89 04 24             	mov    %eax,(%esp)
 8048e2d:	e8 7e fa ff ff       	call   80488b0 <send@plt>
 8048e32:	83 f8 ff             	cmp    $0xffffffff,%eax
 8048e35:	75 15                	jne    8048e4c <send@plt+0x59c>
 8048e37:	c7 04 24 2f 99 04 08 	movl   $0x804992f,(%esp)
 8048e3e:	e8 1d f9 ff ff       	call   8048760 <perror@plt>
 8048e43:	eb 07                	jmp    8048e4c <send@plt+0x59c>
 8048e45:	90                   	nop
 8048e46:	eb 04                	jmp    8048e4c <send@plt+0x59c>
 8048e48:	90                   	nop
 8048e49:	eb 01                	jmp    8048e4c <send@plt+0x59c>
 8048e4b:	90                   	nop
 8048e4c:	83 c4 34             	add    $0x34,%esp
 8048e4f:	5f                   	pop    %edi
 8048e50:	5d                   	pop    %ebp
 8048e51:	c3                   	ret    
 8048e52:	55                   	push   %ebp
 8048e53:	89 e5                	mov    %esp,%ebp
 8048e55:	83 ec 28             	sub    $0x28,%esp
 8048e58:	c7 45 f4 00 00 00 00 	movl   $0x0,-0xc(%ebp)
 8048e5f:	66 c7 45 f2 00 00    	movw   $0x0,-0xe(%ebp)
 8048e65:	8d 45 e8             	lea    -0x18(%ebp),%eax
 8048e68:	c7 00 00 00 00 00    	movl   $0x0,(%eax)
 8048e6e:	c7 40 04 00 00 00 00 	movl   $0x0,0x4(%eax)
 8048e75:	66 c7 40 08 00 00    	movw   $0x0,0x8(%eax)
 8048e7b:	8b 45 08             	mov    0x8(%ebp),%eax
 8048e7e:	c7 44 24 08 0a 00 00 	movl   $0xa,0x8(%esp)
 8048e85:	00 
 8048e86:	8d 55 e8             	lea    -0x18(%ebp),%edx
 8048e89:	89 54 24 04          	mov    %edx,0x4(%esp)
 8048e8d:	89 04 24             	mov    %eax,(%esp)
 8048e90:	e8 4b f8 ff ff       	call   80486e0 <read@plt>
 8048e95:	83 f8 ff             	cmp    $0xffffffff,%eax
 8048e98:	75 13                	jne    8048ead <send@plt+0x5fd>
 8048e9a:	c7 04 24 40 99 04 08 	movl   $0x8049940,(%esp)
 8048ea1:	e8 ba f8 ff ff       	call   8048760 <perror@plt>
 8048ea6:	b8 00 00 00 00       	mov    $0x0,%eax
 8048eab:	eb 4f                	jmp    8048efc <send@plt+0x64c>
 8048ead:	8d 45 e8             	lea    -0x18(%ebp),%eax
 8048eb0:	89 04 24             	mov    %eax,(%esp)
 8048eb3:	e8 a8 f9 ff ff       	call   8048860 <atoi@plt>
 8048eb8:	66 89 45 f2          	mov    %ax,-0xe(%ebp)
 8048ebc:	66 83 7d f2 00       	cmpw   $0x0,-0xe(%ebp)
 8048ec1:	75 2a                	jne    8048eed <send@plt+0x63d>
 8048ec3:	8b 45 08             	mov    0x8(%ebp),%eax
 8048ec6:	c7 44 24 0c 00 00 00 	movl   $0x0,0xc(%esp)
 8048ecd:	00 
 8048ece:	c7 44 24 08 2a 00 00 	movl   $0x2a,0x8(%esp)
 8048ed5:	00 
 8048ed6:	c7 44 24 04 48 99 04 	movl   $0x8049948,0x4(%esp)
 8048edd:	08 
 8048ede:	89 04 24             	mov    %eax,(%esp)
 8048ee1:	e8 ca f9 ff ff       	call   80488b0 <send@plt>
 8048ee6:	b8 00 00 00 00       	mov    $0x0,%eax
 8048eeb:	eb 0f                	jmp    8048efc <send@plt+0x64c>
 8048eed:	8b 45 0c             	mov    0xc(%ebp),%eax
 8048ef0:	0f b7 55 f2          	movzwl -0xe(%ebp),%edx
 8048ef4:	66 89 10             	mov    %dx,(%eax)
 8048ef7:	b8 01 00 00 00       	mov    $0x1,%eax
 8048efc:	c9                   	leave  
 8048efd:	c3                   	ret    
 8048efe:	55                   	push   %ebp
 8048eff:	89 e5                	mov    %esp,%ebp
 8048f01:	57                   	push   %edi
 8048f02:	53                   	push   %ebx
 8048f03:	81 ec d0 04 00 00    	sub    $0x4d0,%esp
 8048f09:	8b 45 0c             	mov    0xc(%ebp),%eax
 8048f0c:	66 89 85 54 fb ff ff 	mov    %ax,-0x4ac(%ebp)
 8048f13:	c7 45 f4 00 00 00 00 	movl   $0x0,-0xc(%ebp)
 8048f1a:	c7 45 f0 00 00 00 00 	movl   $0x0,-0x10(%ebp)
 8048f21:	0f bf 85 54 fb ff ff 	movswl -0x4ac(%ebp),%eax
 8048f28:	89 45 ec             	mov    %eax,-0x14(%ebp)
 8048f2b:	8b 45 ec             	mov    -0x14(%ebp),%eax
 8048f2e:	83 c0 01             	add    $0x1,%eax
 8048f31:	3d 00 04 00 00       	cmp    $0x400,%eax
 8048f36:	76 23                	jbe    8048f5b <send@plt+0x6ab>
 8048f38:	ba 73 99 04 08       	mov    $0x8049973,%edx
 8048f3d:	a1 08 b0 04 08       	mov    0x804b008,%eax
 8048f42:	c7 44 24 08 77 99 04 	movl   $0x8049977,0x8(%esp)
 8048f49:	08 
 8048f4a:	89 54 24 04          	mov    %edx,0x4(%esp)
 8048f4e:	89 04 24             	mov    %eax,(%esp)
 8048f51:	e8 6a f8 ff ff       	call   80487c0 <fprintf@plt>
 8048f56:	e9 af 01 00 00       	jmp    804910a <send@plt+0x85a>
 8048f5b:	8b 45 08             	mov    0x8(%ebp),%eax
 8048f5e:	c7 44 24 0c 00 00 00 	movl   $0x0,0xc(%esp)
 8048f65:	00 
 8048f66:	8b 55 ec             	mov    -0x14(%ebp),%edx
 8048f69:	89 54 24 08          	mov    %edx,0x8(%esp)
 8048f6d:	8d 95 e4 fb ff ff    	lea    -0x41c(%ebp),%edx
 8048f73:	89 54 24 04          	mov    %edx,0x4(%esp)
 8048f77:	89 04 24             	mov    %eax,(%esp)
 8048f7a:	e8 11 f9 ff ff       	call   8048890 <recv@plt>
 8048f7f:	66 89 45 ea          	mov    %ax,-0x16(%ebp)
 8048f83:	66 83 7d ea ff       	cmpw   $0xffff,-0x16(%ebp)
 8048f88:	75 11                	jne    8048f9b <send@plt+0x6eb>
 8048f8a:	c7 04 24 86 99 04 08 	movl   $0x8049986,(%esp)
 8048f91:	e8 ca f7 ff ff       	call   8048760 <perror@plt>
 8048f96:	e9 6f 01 00 00       	jmp    804910a <send@plt+0x85a>
 8048f9b:	0f b7 45 ea          	movzwl -0x16(%ebp),%eax
 8048f9f:	ba 00 04 00 00       	mov    $0x400,%edx
 8048fa4:	66 3d 00 04          	cmp    $0x400,%ax
 8048fa8:	0f 47 c2             	cmova  %edx,%eax
 8048fab:	0f b7 c0             	movzwl %ax,%eax
 8048fae:	89 45 e4             	mov    %eax,-0x1c(%ebp)
 8048fb1:	8b 45 e4             	mov    -0x1c(%ebp),%eax
 8048fb4:	89 44 24 04          	mov    %eax,0x4(%esp)
 8048fb8:	8d 85 e4 fb ff ff    	lea    -0x41c(%ebp),%eax
 8048fbe:	89 04 24             	mov    %eax,(%esp)
 8048fc1:	e8 0d 05 00 00       	call   80494d3 <send@plt+0xc23>
 8048fc6:	83 f0 01             	xor    $0x1,%eax
 8048fc9:	84 c0                	test   %al,%al
 8048fcb:	74 24                	je     8048ff1 <send@plt+0x741>
 8048fcd:	ba 73 99 04 08       	mov    $0x8049973,%edx
 8048fd2:	a1 08 b0 04 08       	mov    0x804b008,%eax
 8048fd7:	c7 44 24 08 90 99 04 	movl   $0x8049990,0x8(%esp)
 8048fde:	08 
 8048fdf:	89 54 24 04          	mov    %edx,0x4(%esp)
 8048fe3:	89 04 24             	mov    %eax,(%esp)
 8048fe6:	e8 d5 f7 ff ff       	call   80487c0 <fprintf@plt>
 8048feb:	90                   	nop
 8048fec:	e9 19 01 00 00       	jmp    804910a <send@plt+0x85a>
 8048ff1:	8d 85 64 fb ff ff    	lea    -0x49c(%ebp),%eax
 8048ff7:	89 c3                	mov    %eax,%ebx
 8048ff9:	b8 00 00 00 00       	mov    $0x0,%eax
 8048ffe:	ba 20 00 00 00       	mov    $0x20,%edx
 8049003:	89 df                	mov    %ebx,%edi
 8049005:	89 d1                	mov    %edx,%ecx
 8049007:	f3 ab                	rep stos %eax,%es:(%edi)
 8049009:	a1 18 b0 04 08       	mov    0x804b018,%eax
 804900e:	8b 15 1c b0 04 08    	mov    0x804b01c,%edx
 8049014:	b9 ca 99 04 08       	mov    $0x80499ca,%ecx
 8049019:	89 44 24 0c          	mov    %eax,0xc(%esp)
 804901d:	89 54 24 10          	mov    %edx,0x10(%esp)
 8049021:	89 4c 24 08          	mov    %ecx,0x8(%esp)
 8049025:	c7 44 24 04 7f 00 00 	movl   $0x7f,0x4(%esp)
 804902c:	00 
 804902d:	8d 85 64 fb ff ff    	lea    -0x49c(%ebp),%eax
 8049033:	89 04 24             	mov    %eax,(%esp)
 8049036:	e8 c5 f7 ff ff       	call   8048800 <snprintf@plt>
 804903b:	ba d8 99 04 08       	mov    $0x80499d8,%edx
 8049040:	8d 85 64 fb ff ff    	lea    -0x49c(%ebp),%eax
 8049046:	89 54 24 04          	mov    %edx,0x4(%esp)
 804904a:	89 04 24             	mov    %eax,(%esp)
 804904d:	e8 8e f7 ff ff       	call   80487e0 <fopen@plt>
 8049052:	89 45 f0             	mov    %eax,-0x10(%ebp)
 8049055:	83 7d f0 00          	cmpl   $0x0,-0x10(%ebp)
 8049059:	75 16                	jne    8049071 <send@plt+0x7c1>
 804905b:	c7 04 24 da 99 04 08 	movl   $0x80499da,(%esp)
 8049062:	e8 f9 f6 ff ff       	call   8048760 <perror@plt>
 8049067:	b8 00 00 00 00       	mov    $0x0,%eax
 804906c:	e9 97 00 00 00       	jmp    8049108 <send@plt+0x858>
 8049071:	8d 85 e4 fb ff ff    	lea    -0x41c(%ebp),%eax
 8049077:	8b 55 f0             	mov    -0x10(%ebp),%edx
 804907a:	89 54 24 0c          	mov    %edx,0xc(%esp)
 804907e:	8b 55 e4             	mov    -0x1c(%ebp),%edx
 8049081:	89 54 24 08          	mov    %edx,0x8(%esp)
 8049085:	c7 44 24 04 01 00 00 	movl   $0x1,0x4(%esp)
 804908c:	00 
 804908d:	89 04 24             	mov    %eax,(%esp)
 8049090:	e8 eb f6 ff ff       	call   8048780 <fwrite@plt>
 8049095:	3b 45 e4             	cmp    -0x1c(%ebp),%eax
 8049098:	74 1c                	je     80490b6 <send@plt+0x806>
 804909a:	8d 85 64 fb ff ff    	lea    -0x49c(%ebp),%eax
 80490a0:	89 44 24 04          	mov    %eax,0x4(%esp)
 80490a4:	8b 45 f0             	mov    -0x10(%ebp),%eax
 80490a7:	89 04 24             	mov    %eax,(%esp)
 80490aa:	e8 65 00 00 00       	call   8049114 <send@plt+0x864>
 80490af:	b8 00 00 00 00       	mov    $0x0,%eax
 80490b4:	eb 52                	jmp    8049108 <send@plt+0x858>
 80490b6:	8b 45 f0             	mov    -0x10(%ebp),%eax
 80490b9:	89 04 24             	mov    %eax,(%esp)
 80490bc:	e8 2f f6 ff ff       	call   80486f0 <fflush@plt>
 80490c1:	83 f8 ff             	cmp    $0xffffffff,%eax
 80490c4:	75 28                	jne    80490ee <send@plt+0x83e>
 80490c6:	c7 04 24 e2 99 04 08 	movl   $0x80499e2,(%esp)
 80490cd:	e8 8e f6 ff ff       	call   8048760 <perror@plt>
 80490d2:	8d 85 64 fb ff ff    	lea    -0x49c(%ebp),%eax
 80490d8:	89 44 24 04          	mov    %eax,0x4(%esp)
 80490dc:	8b 45 f0             	mov    -0x10(%ebp),%eax
 80490df:	89 04 24             	mov    %eax,(%esp)
 80490e2:	e8 2d 00 00 00       	call   8049114 <send@plt+0x864>
 80490e7:	b8 00 00 00 00       	mov    $0x0,%eax
 80490ec:	eb 1a                	jmp    8049108 <send@plt+0x858>
 80490ee:	8d 85 64 fb ff ff    	lea    -0x49c(%ebp),%eax
 80490f4:	89 44 24 04          	mov    %eax,0x4(%esp)
 80490f8:	8b 45 f0             	mov    -0x10(%ebp),%eax
 80490fb:	89 04 24             	mov    %eax,(%esp)
 80490fe:	e8 11 00 00 00       	call   8049114 <send@plt+0x864>
 8049103:	b8 01 00 00 00       	mov    $0x1,%eax
 8049108:	eb 00                	jmp    804910a <send@plt+0x85a>
 804910a:	81 c4 d0 04 00 00    	add    $0x4d0,%esp
 8049110:	5b                   	pop    %ebx
 8049111:	5f                   	pop    %edi
 8049112:	5d                   	pop    %ebp
 8049113:	c3                   	ret    
 8049114:	55                   	push   %ebp
 8049115:	89 e5                	mov    %esp,%ebp
 8049117:	83 ec 18             	sub    $0x18,%esp
 804911a:	8b 45 08             	mov    0x8(%ebp),%eax
 804911d:	89 04 24             	mov    %eax,(%esp)
 8049120:	e8 db f5 ff ff       	call   8048700 <fclose@plt>
 8049125:	83 f8 ff             	cmp    $0xffffffff,%eax
 8049128:	75 0e                	jne    8049138 <send@plt+0x888>
 804912a:	c7 04 24 eb 99 04 08 	movl   $0x80499eb,(%esp)
 8049131:	e8 2a f6 ff ff       	call   8048760 <perror@plt>
 8049136:	eb 1c                	jmp    8049154 <send@plt+0x8a4>
 8049138:	8b 45 0c             	mov    0xc(%ebp),%eax
 804913b:	89 04 24             	mov    %eax,(%esp)
 804913e:	e8 0d f7 ff ff       	call   8048850 <remove@plt>
 8049143:	83 f8 ff             	cmp    $0xffffffff,%eax
 8049146:	75 0c                	jne    8049154 <send@plt+0x8a4>
 8049148:	c7 04 24 f4 99 04 08 	movl   $0x80499f4,(%esp)
 804914f:	e8 0c f6 ff ff       	call   8048760 <perror@plt>
 8049154:	c9                   	leave  
 8049155:	c3                   	ret    
 8049156:	55                   	push   %ebp
 8049157:	89 e5                	mov    %esp,%ebp
 8049159:	57                   	push   %edi
 804915a:	56                   	push   %esi
 804915b:	53                   	push   %ebx
 804915c:	83 ec 5c             	sub    $0x5c,%esp
 804915f:	89 e0                	mov    %esp,%eax
 8049161:	89 c3                	mov    %eax,%ebx
 8049163:	c7 45 e4 fd 99 04 08 	movl   $0x80499fd,-0x1c(%ebp)
 804916a:	c7 45 e0 08 9a 04 08 	movl   $0x8049a08,-0x20(%ebp)
 8049171:	c7 45 dc 13 9a 04 08 	movl   $0x8049a13,-0x24(%ebp)
 8049178:	c7 45 d8 28 9a 04 08 	movl   $0x8049a28,-0x28(%ebp)
 804917f:	c7 45 d4 09 00 00 00 	movl   $0x9,-0x2c(%ebp)
 8049186:	c7 45 d0 0a 00 00 00 	movl   $0xa,-0x30(%ebp)
 804918d:	8b 45 d4             	mov    -0x2c(%ebp),%eax
 8049190:	89 c2                	mov    %eax,%edx
 8049192:	83 ea 01             	sub    $0x1,%edx
 8049195:	89 55 cc             	mov    %edx,-0x34(%ebp)
 8049198:	8d 50 0f             	lea    0xf(%eax),%edx
 804919b:	b8 10 00 00 00       	mov    $0x10,%eax
 80491a0:	83 e8 01             	sub    $0x1,%eax
 80491a3:	01 d0                	add    %edx,%eax
 80491a5:	c7 45 b0 10 00 00 00 	movl   $0x10,-0x50(%ebp)
 80491ac:	ba 00 00 00 00       	mov    $0x0,%edx
 80491b1:	f7 75 b0             	divl   -0x50(%ebp)
 80491b4:	6b c0 10             	imul   $0x10,%eax,%eax
 80491b7:	29 c4                	sub    %eax,%esp
 80491b9:	8d 44 24 10          	lea    0x10(%esp),%eax
 80491bd:	83 c0 0f             	add    $0xf,%eax
 80491c0:	c1 e8 04             	shr    $0x4,%eax
 80491c3:	c1 e0 04             	shl    $0x4,%eax
 80491c6:	89 45 c8             	mov    %eax,-0x38(%ebp)
 80491c9:	8b 45 d0             	mov    -0x30(%ebp),%eax
 80491cc:	89 c2                	mov    %eax,%edx
 80491ce:	83 ea 01             	sub    $0x1,%edx
 80491d1:	89 55 c4             	mov    %edx,-0x3c(%ebp)
 80491d4:	8d 50 0f             	lea    0xf(%eax),%edx
 80491d7:	b8 10 00 00 00       	mov    $0x10,%eax
 80491dc:	83 e8 01             	sub    $0x1,%eax
 80491df:	01 d0                	add    %edx,%eax
 80491e1:	c7 45 b0 10 00 00 00 	movl   $0x10,-0x50(%ebp)
 80491e8:	ba 00 00 00 00       	mov    $0x0,%edx
 80491ed:	f7 75 b0             	divl   -0x50(%ebp)
 80491f0:	6b c0 10             	imul   $0x10,%eax,%eax
 80491f3:	29 c4                	sub    %eax,%esp
 80491f5:	8d 44 24 10          	lea    0x10(%esp),%eax
 80491f9:	83 c0 0f             	add    $0xf,%eax
 80491fc:	c1 e8 04             	shr    $0x4,%eax
 80491ff:	c1 e0 04             	shl    $0x4,%eax
 8049202:	89 45 c0             	mov    %eax,-0x40(%ebp)
 8049205:	8b 45 c8             	mov    -0x38(%ebp),%eax
 8049208:	8b 55 d4             	mov    -0x2c(%ebp),%edx
 804920b:	89 54 24 08          	mov    %edx,0x8(%esp)
 804920f:	c7 44 24 04 00 00 00 	movl   $0x0,0x4(%esp)
 8049216:	00 
 8049217:	89 04 24             	mov    %eax,(%esp)
 804921a:	e8 d1 f5 ff ff       	call   80487f0 <memset@plt>
 804921f:	8b 45 c0             	mov    -0x40(%ebp),%eax
 8049222:	8b 55 d0             	mov    -0x30(%ebp),%edx
 8049225:	89 54 24 08          	mov    %edx,0x8(%esp)
 8049229:	c7 44 24 04 00 00 00 	movl   $0x0,0x4(%esp)
 8049230:	00 
 8049231:	89 04 24             	mov    %eax,(%esp)
 8049234:	e8 b7 f5 ff ff       	call   80487f0 <memset@plt>
 8049239:	8b 45 e4             	mov    -0x1c(%ebp),%eax
 804923c:	c7 45 b4 ff ff ff ff 	movl   $0xffffffff,-0x4c(%ebp)
 8049243:	89 c2                	mov    %eax,%edx
 8049245:	b8 00 00 00 00       	mov    $0x0,%eax
 804924a:	8b 4d b4             	mov    -0x4c(%ebp),%ecx
 804924d:	89 d7                	mov    %edx,%edi
 804924f:	f2 ae                	repnz scas %es:(%edi),%al
 8049251:	89 c8                	mov    %ecx,%eax
 8049253:	f7 d0                	not    %eax
 8049255:	8d 50 ff             	lea    -0x1(%eax),%edx
 8049258:	8b 45 08             	mov    0x8(%ebp),%eax
 804925b:	c7 44 24 0c 00 00 00 	movl   $0x0,0xc(%esp)
 8049262:	00 
 8049263:	89 54 24 08          	mov    %edx,0x8(%esp)
 8049267:	8b 55 e4             	mov    -0x1c(%ebp),%edx
 804926a:	89 54 24 04          	mov    %edx,0x4(%esp)
 804926e:	89 04 24             	mov    %eax,(%esp)
 8049271:	e8 3a f6 ff ff       	call   80488b0 <send@plt>
 8049276:	83 f8 ff             	cmp    $0xffffffff,%eax
 8049279:	75 16                	jne    8049291 <send@plt+0x9e1>
 804927b:	c7 04 24 2f 99 04 08 	movl   $0x804992f,(%esp)
 8049282:	e8 d9 f4 ff ff       	call   8048760 <perror@plt>
 8049287:	b8 00 00 00 00       	mov    $0x0,%eax
 804928c:	e9 38 02 00 00       	jmp    80494c9 <send@plt+0xc19>
 8049291:	8b 55 c8             	mov    -0x38(%ebp),%edx
 8049294:	8b 45 08             	mov    0x8(%ebp),%eax
 8049297:	c7 44 24 0c 00 00 00 	movl   $0x0,0xc(%esp)
 804929e:	00 
 804929f:	8b 4d d4             	mov    -0x2c(%ebp),%ecx
 80492a2:	89 4c 24 08          	mov    %ecx,0x8(%esp)
 80492a6:	89 54 24 04          	mov    %edx,0x4(%esp)
 80492aa:	89 04 24             	mov    %eax,(%esp)
 80492ad:	e8 de f5 ff ff       	call   8048890 <recv@plt>
 80492b2:	83 f8 ff             	cmp    $0xffffffff,%eax
 80492b5:	75 16                	jne    80492cd <send@plt+0xa1d>
 80492b7:	c7 04 24 86 99 04 08 	movl   $0x8049986,(%esp)
 80492be:	e8 9d f4 ff ff       	call   8048760 <perror@plt>
 80492c3:	b8 00 00 00 00       	mov    $0x0,%eax
 80492c8:	e9 fc 01 00 00       	jmp    80494c9 <send@plt+0xc19>
 80492cd:	8b 45 e0             	mov    -0x20(%ebp),%eax
 80492d0:	c7 45 b4 ff ff ff ff 	movl   $0xffffffff,-0x4c(%ebp)
 80492d7:	89 c2                	mov    %eax,%edx
 80492d9:	b8 00 00 00 00       	mov    $0x0,%eax
 80492de:	8b 4d b4             	mov    -0x4c(%ebp),%ecx
 80492e1:	89 d7                	mov    %edx,%edi
 80492e3:	f2 ae                	repnz scas %es:(%edi),%al
 80492e5:	89 c8                	mov    %ecx,%eax
 80492e7:	f7 d0                	not    %eax
 80492e9:	8d 50 ff             	lea    -0x1(%eax),%edx
 80492ec:	8b 45 08             	mov    0x8(%ebp),%eax
 80492ef:	c7 44 24 0c 00 00 00 	movl   $0x0,0xc(%esp)
 80492f6:	00 
 80492f7:	89 54 24 08          	mov    %edx,0x8(%esp)
 80492fb:	8b 55 e0             	mov    -0x20(%ebp),%edx
 80492fe:	89 54 24 04          	mov    %edx,0x4(%esp)
 8049302:	89 04 24             	mov    %eax,(%esp)
 8049305:	e8 a6 f5 ff ff       	call   80488b0 <send@plt>
 804930a:	83 f8 ff             	cmp    $0xffffffff,%eax
 804930d:	75 16                	jne    8049325 <send@plt+0xa75>
 804930f:	c7 04 24 2f 99 04 08 	movl   $0x804992f,(%esp)
 8049316:	e8 45 f4 ff ff       	call   8048760 <perror@plt>
 804931b:	b8 00 00 00 00       	mov    $0x0,%eax
 8049320:	e9 a4 01 00 00       	jmp    80494c9 <send@plt+0xc19>
 8049325:	8b 55 c0             	mov    -0x40(%ebp),%edx
 8049328:	8b 45 08             	mov    0x8(%ebp),%eax
 804932b:	c7 44 24 0c 00 00 00 	movl   $0x0,0xc(%esp)
 8049332:	00 
 8049333:	8b 4d d0             	mov    -0x30(%ebp),%ecx
 8049336:	89 4c 24 08          	mov    %ecx,0x8(%esp)
 804933a:	89 54 24 04          	mov    %edx,0x4(%esp)
 804933e:	89 04 24             	mov    %eax,(%esp)
 8049341:	e8 4a f5 ff ff       	call   8048890 <recv@plt>
 8049346:	83 f8 ff             	cmp    $0xffffffff,%eax
 8049349:	75 16                	jne    8049361 <send@plt+0xab1>
 804934b:	c7 04 24 86 99 04 08 	movl   $0x8049986,(%esp)
 8049352:	e8 09 f4 ff ff       	call   8048760 <perror@plt>
 8049357:	b8 00 00 00 00       	mov    $0x0,%eax
 804935c:	e9 68 01 00 00       	jmp    80494c9 <send@plt+0xc19>
 8049361:	8b 45 c8             	mov    -0x38(%ebp),%eax
 8049364:	89 c2                	mov    %eax,%edx
 8049366:	b8 4f 9a 04 08       	mov    $0x8049a4f,%eax
 804936b:	b9 08 00 00 00       	mov    $0x8,%ecx
 8049370:	89 d6                	mov    %edx,%esi
 8049372:	89 c7                	mov    %eax,%edi
 8049374:	f3 a6                	repz cmpsb %es:(%edi),%ds:(%esi)
 8049376:	0f 97 c2             	seta   %dl
 8049379:	0f 92 c0             	setb   %al
 804937c:	89 d1                	mov    %edx,%ecx
 804937e:	28 c1                	sub    %al,%cl
 8049380:	89 c8                	mov    %ecx,%eax
 8049382:	0f be c0             	movsbl %al,%eax
 8049385:	85 c0                	test   %eax,%eax
 8049387:	74 62                	je     80493eb <send@plt+0xb3b>
 8049389:	8b 45 dc             	mov    -0x24(%ebp),%eax
 804938c:	c7 45 b4 ff ff ff ff 	movl   $0xffffffff,-0x4c(%ebp)
 8049393:	89 c2                	mov    %eax,%edx
 8049395:	b8 00 00 00 00       	mov    $0x0,%eax
 804939a:	8b 4d b4             	mov    -0x4c(%ebp),%ecx
 804939d:	89 d7                	mov    %edx,%edi
 804939f:	f2 ae                	repnz scas %es:(%edi),%al
 80493a1:	89 c8                	mov    %ecx,%eax
 80493a3:	f7 d0                	not    %eax
 80493a5:	8d 50 ff             	lea    -0x1(%eax),%edx
 80493a8:	8b 45 08             	mov    0x8(%ebp),%eax
 80493ab:	c7 44 24 0c 00 00 00 	movl   $0x0,0xc(%esp)
 80493b2:	00 
 80493b3:	89 54 24 08          	mov    %edx,0x8(%esp)
 80493b7:	8b 55 dc             	mov    -0x24(%ebp),%edx
 80493ba:	89 54 24 04          	mov    %edx,0x4(%esp)
 80493be:	89 04 24             	mov    %eax,(%esp)
 80493c1:	e8 ea f4 ff ff       	call   80488b0 <send@plt>
 80493c6:	83 f8 ff             	cmp    $0xffffffff,%eax
 80493c9:	75 16                	jne    80493e1 <send@plt+0xb31>
 80493cb:	c7 04 24 2f 99 04 08 	movl   $0x804992f,(%esp)
 80493d2:	e8 89 f3 ff ff       	call   8048760 <perror@plt>
 80493d7:	b8 00 00 00 00       	mov    $0x0,%eax
 80493dc:	e9 e8 00 00 00       	jmp    80494c9 <send@plt+0xc19>
 80493e1:	b8 00 00 00 00       	mov    $0x0,%eax
 80493e6:	e9 de 00 00 00       	jmp    80494c9 <send@plt+0xc19>
 80493eb:	8b 45 c0             	mov    -0x40(%ebp),%eax
 80493ee:	89 c2                	mov    %eax,%edx
 80493f0:	b8 58 9a 04 08       	mov    $0x8049a58,%eax
 80493f5:	b9 09 00 00 00       	mov    $0x9,%ecx
 80493fa:	89 d6                	mov    %edx,%esi
 80493fc:	89 c7                	mov    %eax,%edi
 80493fe:	f3 a6                	repz cmpsb %es:(%edi),%ds:(%esi)
 8049400:	0f 97 c2             	seta   %dl
 8049403:	0f 92 c0             	setb   %al
 8049406:	89 d1                	mov    %edx,%ecx
 8049408:	28 c1                	sub    %al,%cl
 804940a:	89 c8                	mov    %ecx,%eax
 804940c:	0f be c0             	movsbl %al,%eax
 804940f:	85 c0                	test   %eax,%eax
 8049411:	74 5c                	je     804946f <send@plt+0xbbf>
 8049413:	8b 45 dc             	mov    -0x24(%ebp),%eax
 8049416:	c7 45 b4 ff ff ff ff 	movl   $0xffffffff,-0x4c(%ebp)
 804941d:	89 c2                	mov    %eax,%edx
 804941f:	b8 00 00 00 00       	mov    $0x0,%eax
 8049424:	8b 4d b4             	mov    -0x4c(%ebp),%ecx
 8049427:	89 d7                	mov    %edx,%edi
 8049429:	f2 ae                	repnz scas %es:(%edi),%al
 804942b:	89 c8                	mov    %ecx,%eax
 804942d:	f7 d0                	not    %eax
 804942f:	8d 50 ff             	lea    -0x1(%eax),%edx
 8049432:	8b 45 08             	mov    0x8(%ebp),%eax
 8049435:	c7 44 24 0c 00 00 00 	movl   $0x0,0xc(%esp)
 804943c:	00 
 804943d:	89 54 24 08          	mov    %edx,0x8(%esp)
 8049441:	8b 55 dc             	mov    -0x24(%ebp),%edx
 8049444:	89 54 24 04          	mov    %edx,0x4(%esp)
 8049448:	89 04 24             	mov    %eax,(%esp)
 804944b:	e8 60 f4 ff ff       	call   80488b0 <send@plt>
 8049450:	83 f8 ff             	cmp    $0xffffffff,%eax
 8049453:	75 13                	jne    8049468 <send@plt+0xbb8>
 8049455:	c7 04 24 2f 99 04 08 	movl   $0x804992f,(%esp)
 804945c:	e8 ff f2 ff ff       	call   8048760 <perror@plt>
 8049461:	b8 00 00 00 00       	mov    $0x0,%eax
 8049466:	eb 61                	jmp    80494c9 <send@plt+0xc19>
 8049468:	b8 00 00 00 00       	mov    $0x0,%eax
 804946d:	eb 5a                	jmp    80494c9 <send@plt+0xc19>
 804946f:	8b 45 d8             	mov    -0x28(%ebp),%eax
 8049472:	c7 45 b4 ff ff ff ff 	movl   $0xffffffff,-0x4c(%ebp)
 8049479:	89 c2                	mov    %eax,%edx
 804947b:	b8 00 00 00 00       	mov    $0x0,%eax
 8049480:	8b 4d b4             	mov    -0x4c(%ebp),%ecx
 8049483:	89 d7                	mov    %edx,%edi
 8049485:	f2 ae                	repnz scas %es:(%edi),%al
 8049487:	89 c8                	mov    %ecx,%eax
 8049489:	f7 d0                	not    %eax
 804948b:	8d 50 ff             	lea    -0x1(%eax),%edx
 804948e:	8b 45 08             	mov    0x8(%ebp),%eax
 8049491:	c7 44 24 0c 00 00 00 	movl   $0x0,0xc(%esp)
 8049498:	00 
 8049499:	89 54 24 08          	mov    %edx,0x8(%esp)
 804949d:	8b 55 d8             	mov    -0x28(%ebp),%edx
 80494a0:	89 54 24 04          	mov    %edx,0x4(%esp)
 80494a4:	89 04 24             	mov    %eax,(%esp)
 80494a7:	e8 04 f4 ff ff       	call   80488b0 <send@plt>
 80494ac:	83 f8 ff             	cmp    $0xffffffff,%eax
 80494af:	75 13                	jne    80494c4 <send@plt+0xc14>
 80494b1:	c7 04 24 2f 99 04 08 	movl   $0x804992f,(%esp)
 80494b8:	e8 a3 f2 ff ff       	call   8048760 <perror@plt>
 80494bd:	b8 00 00 00 00       	mov    $0x0,%eax
 80494c2:	eb 05                	jmp    80494c9 <send@plt+0xc19>
 80494c4:	b8 01 00 00 00       	mov    $0x1,%eax
 80494c9:	89 dc                	mov    %ebx,%esp
 80494cb:	8d 65 f4             	lea    -0xc(%ebp),%esp
 80494ce:	5b                   	pop    %ebx
 80494cf:	5e                   	pop    %esi
 80494d0:	5f                   	pop    %edi
 80494d1:	5d                   	pop    %ebp
 80494d2:	c3                   	ret    
 80494d3:	55                   	push   %ebp
 80494d4:	89 e5                	mov    %esp,%ebp
 80494d6:	83 ec 10             	sub    $0x10,%esp
 80494d9:	c7 45 fc 00 00 00 00 	movl   $0x0,-0x4(%ebp)
 80494e0:	eb 1c                	jmp    80494fe <send@plt+0xc4e>
 80494e2:	8b 45 fc             	mov    -0x4(%ebp),%eax
 80494e5:	8b 55 08             	mov    0x8(%ebp),%edx
 80494e8:	01 d0                	add    %edx,%eax
 80494ea:	0f b6 00             	movzbl (%eax),%eax
 80494ed:	84 c0                	test   %al,%al
 80494ef:	78 06                	js     80494f7 <send@plt+0xc47>
 80494f1:	83 45 fc 01          	addl   $0x1,-0x4(%ebp)
 80494f5:	eb 07                	jmp    80494fe <send@plt+0xc4e>
 80494f7:	b8 00 00 00 00       	mov    $0x0,%eax
 80494fc:	eb 0d                	jmp    804950b <send@plt+0xc5b>
 80494fe:	8b 45 fc             	mov    -0x4(%ebp),%eax
 8049501:	3b 45 0c             	cmp    0xc(%ebp),%eax
 8049504:	72 dc                	jb     80494e2 <send@plt+0xc32>
 8049506:	b8 01 00 00 00       	mov    $0x1,%eax
 804950b:	c9                   	leave  
 804950c:	c3                   	ret    
 804950d:	90                   	nop
 804950e:	90                   	nop
 804950f:	90                   	nop
 8049510:	55                   	push   %ebp
 8049511:	57                   	push   %edi
 8049512:	56                   	push   %esi
 8049513:	53                   	push   %ebx
 8049514:	e8 69 00 00 00       	call   8049582 <send@plt+0xcd2>
 8049519:	81 c3 5b 1a 00 00    	add    $0x1a5b,%ebx
 804951f:	83 ec 1c             	sub    $0x1c,%esp
 8049522:	8b 6c 24 30          	mov    0x30(%esp),%ebp
 8049526:	8d bb 14 ff ff ff    	lea    -0xec(%ebx),%edi
 804952c:	e8 53 f1 ff ff       	call   8048684 <setsockopt@plt-0x4c>
 8049531:	8d 83 14 ff ff ff    	lea    -0xec(%ebx),%eax
 8049537:	29 c7                	sub    %eax,%edi
 8049539:	c1 ff 02             	sar    $0x2,%edi
 804953c:	85 ff                	test   %edi,%edi
 804953e:	74 29                	je     8049569 <send@plt+0xcb9>
 8049540:	31 f6                	xor    %esi,%esi
 8049542:	8d b6 00 00 00 00    	lea    0x0(%esi),%esi
 8049548:	8b 44 24 38          	mov    0x38(%esp),%eax
 804954c:	89 2c 24             	mov    %ebp,(%esp)
 804954f:	89 44 24 08          	mov    %eax,0x8(%esp)
 8049553:	8b 44 24 34          	mov    0x34(%esp),%eax
 8049557:	89 44 24 04          	mov    %eax,0x4(%esp)
 804955b:	ff 94 b3 14 ff ff ff 	call   *-0xec(%ebx,%esi,4)
 8049562:	83 c6 01             	add    $0x1,%esi
 8049565:	39 fe                	cmp    %edi,%esi
 8049567:	75 df                	jne    8049548 <send@plt+0xc98>
 8049569:	83 c4 1c             	add    $0x1c,%esp
 804956c:	5b                   	pop    %ebx
 804956d:	5e                   	pop    %esi
 804956e:	5f                   	pop    %edi
 804956f:	5d                   	pop    %ebp
 8049570:	c3                   	ret    
 8049571:	eb 0d                	jmp    8049580 <send@plt+0xcd0>
 8049573:	90                   	nop
 8049574:	90                   	nop
 8049575:	90                   	nop
 8049576:	90                   	nop
 8049577:	90                   	nop
 8049578:	90                   	nop
 8049579:	90                   	nop
 804957a:	90                   	nop
 804957b:	90                   	nop
 804957c:	90                   	nop
 804957d:	90                   	nop
 804957e:	90                   	nop
 804957f:	90                   	nop
 8049580:	f3 c3                	repz ret 
 8049582:	8b 1c 24             	mov    (%esp),%ebx
 8049585:	c3                   	ret    
 8049586:	90                   	nop
 8049587:	90                   	nop
 8049588:	90                   	nop
 8049589:	90                   	nop
 804958a:	90                   	nop
 804958b:	90                   	nop
 804958c:	90                   	nop
 804958d:	90                   	nop
 804958e:	90                   	nop
 804958f:	90                   	nop
 8049590:	55                   	push   %ebp
 8049591:	89 e5                	mov    %esp,%ebp
 8049593:	53                   	push   %ebx
 8049594:	83 ec 04             	sub    $0x4,%esp
 8049597:	a1 88 ae 04 08       	mov    0x804ae88,%eax
 804959c:	83 f8 ff             	cmp    $0xffffffff,%eax
 804959f:	74 13                	je     80495b4 <send@plt+0xd04>
 80495a1:	bb 88 ae 04 08       	mov    $0x804ae88,%ebx
 80495a6:	66 90                	xchg   %ax,%ax
 80495a8:	83 eb 04             	sub    $0x4,%ebx
 80495ab:	ff d0                	call   *%eax
 80495ad:	8b 03                	mov    (%ebx),%eax
 80495af:	83 f8 ff             	cmp    $0xffffffff,%eax
 80495b2:	75 f4                	jne    80495a8 <send@plt+0xcf8>
 80495b4:	83 c4 04             	add    $0x4,%esp
 80495b7:	5b                   	pop    %ebx
 80495b8:	5d                   	pop    %ebp
 80495b9:	c3                   	ret    
 80495ba:	90                   	nop
 80495bb:	90                   	nop

Disassembly of section .fini:

080495bc <.fini>:
 80495bc:	53                   	push   %ebx
 80495bd:	83 ec 08             	sub    $0x8,%esp
 80495c0:	e8 00 00 00 00       	call   80495c5 <send@plt+0xd15>
 80495c5:	5b                   	pop    %ebx
 80495c6:	81 c3 af 19 00 00    	add    $0x19af,%ebx
 80495cc:	e8 1f f3 ff ff       	call   80488f0 <send@plt+0x40>
 80495d1:	83 c4 08             	add    $0x8,%esp
 80495d4:	5b                   	pop    %ebx
 80495d5:	c3                   	ret    
