
./braincpy:     file format elf32-i386


Disassembly of section .plt:

080481e0 <.plt>:
 80481e0:	ff 25 00 50 0e 08    	jmp    *0x80e5000
 80481e6:	68 00 00 00 00       	push   $0x0
 80481eb:	e9 00 00 00 00       	jmp    80481f0 <__rel_iplt_end+0x34>
 80481f0:	ff 25 04 50 0e 08    	jmp    *0x80e5004
 80481f6:	68 00 00 00 00       	push   $0x0
 80481fb:	e9 00 00 00 00       	jmp    8048200 <__rel_iplt_end+0x44>
 8048200:	ff 25 08 50 0e 08    	jmp    *0x80e5008
 8048206:	68 00 00 00 00       	push   $0x0
 804820b:	e9 00 00 00 00       	jmp    8048210 <__rel_iplt_end+0x54>
 8048210:	ff 25 0c 50 0e 08    	jmp    *0x80e500c
 8048216:	68 00 00 00 00       	push   $0x0
 804821b:	e9 00 00 00 00       	jmp    8048220 <__rel_iplt_end+0x64>
 8048220:	ff 25 10 50 0e 08    	jmp    *0x80e5010
 8048226:	68 00 00 00 00       	push   $0x0
 804822b:	e9 00 00 00 00       	jmp    8048230 <__rel_iplt_end+0x74>
 8048230:	ff 25 14 50 0e 08    	jmp    *0x80e5014
 8048236:	68 00 00 00 00       	push   $0x0
 804823b:	e9 00 00 00 00       	jmp    8048240 <__rel_iplt_end+0x84>
 8048240:	ff 25 18 50 0e 08    	jmp    *0x80e5018
 8048246:	68 00 00 00 00       	push   $0x0
 804824b:	e9 00 00 00 00       	jmp    8048250 <__rel_iplt_end+0x94>
 8048250:	ff 25 1c 50 0e 08    	jmp    *0x80e501c
 8048256:	68 00 00 00 00       	push   $0x0
 804825b:	e9 00 00 00 00       	jmp    8048260 <__rel_iplt_end+0xa4>
 8048260:	ff 25 20 50 0e 08    	jmp    *0x80e5020
 8048266:	68 00 00 00 00       	push   $0x0
 804826b:	e9 00 00 00 00       	jmp    8048270 <__rel_iplt_end+0xb4>
 8048270:	ff 25 24 50 0e 08    	jmp    *0x80e5024
 8048276:	68 00 00 00 00       	push   $0x0
 804827b:	e9 00 00 00 00       	jmp    8048280 <__rel_iplt_end+0xc4>
 8048280:	ff 25 28 50 0e 08    	jmp    *0x80e5028
 8048286:	68 00 00 00 00       	push   $0x0
 804828b:	e9 00 00 00 00       	jmp    8048290 <__rel_iplt_end+0xd4>
 8048290:	ff 25 2c 50 0e 08    	jmp    *0x80e502c
 8048296:	68 00 00 00 00       	push   $0x0
 804829b:	e9 00 00 00 00       	jmp    80482a0 <__rel_iplt_end+0xe4>
 80482a0:	ff 25 30 50 0e 08    	jmp    *0x80e5030
 80482a6:	68 00 00 00 00       	push   $0x0
 80482ab:	e9 00 00 00 00       	jmp    80482b0 <__rel_iplt_end+0xf4>
 80482b0:	ff 25 34 50 0e 08    	jmp    *0x80e5034
 80482b6:	68 00 00 00 00       	push   $0x0
 80482bb:	e9 00 00 00 00       	jmp    80482c0 <__rel_iplt_end+0x104>
 80482c0:	ff 25 38 50 0e 08    	jmp    *0x80e5038
 80482c6:	68 00 00 00 00       	push   $0x0
 80482cb:	e9 00 00 00 00       	jmp    80482d0 <__rel_iplt_end+0x114>
 80482d0:	ff 25 3c 50 0e 08    	jmp    *0x80e503c
 80482d6:	68 00 00 00 00       	push   $0x0
 80482db:	e9 00 00 00 00       	jmp    80482e0 <__rel_iplt_end+0x124>
 80482e0:	ff 25 40 50 0e 08    	jmp    *0x80e5040
 80482e6:	68 00 00 00 00       	push   $0x0
 80482eb:	e9 00 00 00 00       	jmp    80482f0 <_start>
